; Function Attrs: nounwind uwtable
define internal void @my_emit_message(ptr noundef %0, i32 noundef %1) #3 {
  %3 = icmp slt i32 %1, 0
  %4 = load ptr, ptr %0, align 8, !tbaa !100
  br i1 %3, label %.sink.split, label %5

5:                                                ; preds = %2
  %6 = getelementptr inbounds nuw i8, ptr %4, i64 124
  %7 = load i32, ptr %6, align 4, !tbaa !77
  %.not = icmp slt i32 %7, %1
  br i1 %.not, label %10, label %8

8:                                                ; preds = %5
  %9 = getelementptr inbounds nuw i8, ptr %4, i64 16
  br label %.sink.split

.sink.split:                                      ; preds = %2, %8
  %.sink.in = phi ptr [ %9, %8 ], [ %4, %2 ]
  %.sink = load ptr, ptr %.sink.in, align 8, !tbaa !102
  tail call void %.sink(ptr noundef nonnull %0) #12
  br label %10

10:                                               ; preds = %.sink.split, %5
  ret void
}